; ModuleID = 'source-C-CXX/36/1330.c'
source_filename = "source-C-CXX/36/1330.c"
target datalayout = "e-m:e-p270:32:32-p271:32:32-p272:64:64-i64:64-f80:128-n8:16:32:64-S128"
target triple = "x86_64-pc-linux-gnu"

@.str = private unnamed_addr constant [4 x i8] c"%c\0A\00", align 1
@str = private unnamed_addr constant [3 x i8] c"no\00", align 1

; Function Attrs: nounwind sspstrong uwtable
define dso_local i32 @main() local_unnamed_addr #0 {
  %1 = alloca [80 x i8], align 16
  %2 = alloca [100000 x i8], align 16
  %3 = getelementptr inbounds [80 x i8], [80 x i8]* %1, i64 0, i64 0
  call void @llvm.lifetime.start.p0i8(i64 80, i8* nonnull %3) #7
  %4 = call i32 (i8*, ...) bitcast (i32 (...)* @gets to i32 (i8*, ...)*)(i8* nonnull %3) #7
  %5 = getelementptr inbounds [100000 x i8], [100000 x i8]* %2, i64 0, i64 0
  call void @llvm.lifetime.start.p0i8(i64 100000, i8* nonnull %5) #7
  %6 = call i64 @strtol(i8* nocapture nonnull %3, i8** null, i32 10) #7
  %7 = trunc i64 %6 to i32
  %8 = icmp sgt i32 %7, 0
  br i1 %8, label %9, label %49

9:                                                ; preds = %0, %46
  %10 = phi i32 [ %47, %46 ], [ 0, %0 ]
  %11 = call i32 (i8*, ...) bitcast (i32 (...)* @gets to i32 (i8*, ...)*)(i8* nonnull %5) #7
  %12 = call i64 @strlen(i8* noundef nonnull %5) #8
  %13 = trunc i64 %12 to i32
  %14 = icmp sgt i32 %13, 0
  br i1 %14, label %15, label %44

15:                                               ; preds = %9
  %16 = shl i64 %12, 32
  %17 = ashr exact i64 %16, 32
  %18 = and i64 %12, 4294967295
  br label %19

19:                                               ; preds = %15, %34
  %20 = phi i64 [ 0, %15 ], [ %35, %34 ]
  %21 = phi i1 [ true, %15 ], [ %36, %34 ]
  %22 = getelementptr inbounds [100000 x i8], [100000 x i8]* %2, i64 0, i64 %20
  %23 = load i8, i8* %22, align 1, !tbaa !5
  br label %26

24:                                               ; preds = %26
  %25 = icmp eq i64 %33, %18
  br i1 %25, label %38, label %26, !llvm.loop !8

26:                                               ; preds = %19, %24
  %27 = phi i64 [ 0, %19 ], [ %33, %24 ]
  %28 = getelementptr inbounds [100000 x i8], [100000 x i8]* %2, i64 0, i64 %27
  %29 = load i8, i8* %28, align 1, !tbaa !5
  %30 = icmp ne i8 %23, %29
  %31 = icmp eq i64 %20, %27
  %32 = select i1 %30, i1 true, i1 %31
  %33 = add nuw nsw i64 %27, 1
  br i1 %32, label %24, label %34

34:                                               ; preds = %26
  %35 = add nuw nsw i64 %20, 1
  %36 = icmp slt i64 %35, %17
  %37 = icmp eq i64 %35, %18
  br i1 %37, label %44, label %19, !llvm.loop !10

38:                                               ; preds = %24
  %39 = and i64 %20, 4294967295
  %40 = getelementptr inbounds [100000 x i8], [100000 x i8]* %2, i64 0, i64 %39
  %41 = load i8, i8* %40, align 1, !tbaa !5
  %42 = sext i8 %41 to i32
  %43 = call i32 (i8*, ...) @printf(i8* nonnull dereferenceable(1) getelementptr inbounds ([4 x i8], [4 x i8]* @.str, i64 0, i64 0), i32 %42)
  br i1 %21, label %46, label %44

44:                                               ; preds = %34, %9, %38
  %45 = call i32 @puts(i8* nonnull dereferenceable(1) getelementptr inbounds ([3 x i8], [3 x i8]* @str, i64 0, i64 0))
  br label %46

46:                                               ; preds = %38, %44
  %47 = add nuw nsw i32 %10, 1
  %48 = icmp eq i32 %47, %7
  br i1 %48, label %49, label %9, !llvm.loop !11

49:                                               ; preds = %46, %0
  call void @llvm.lifetime.end.p0i8(i64 100000, i8* nonnull %5) #7
  call void @llvm.lifetime.end.p0i8(i64 80, i8* nonnull %3) #7
  ret i32 0
}

; Function Attrs: argmemonly mustprogress nofree nosync nounwind willreturn
declare void @llvm.lifetime.start.p0i8(i64 immarg, i8* nocapture) #1

declare i32 @gets(...) local_unnamed_addr #2

; Function Attrs: argmemonly mustprogress nofree nounwind readonly willreturn
declare i64 @strlen(i8* nocapture) local_unnamed_addr #3

; Function Attrs: nofree nounwind
declare noundef i32 @printf(i8* nocapture noundef readonly, ...) local_unnamed_addr #4

; Function Attrs: argmemonly mustprogress nofree nosync nounwind willreturn
declare void @llvm.lifetime.end.p0i8(i64 immarg, i8* nocapture) #1

; Function Attrs: mustprogress nofree nounwind willreturn
declare i64 @strtol(i8* readonly, i8** nocapture, i32) local_unnamed_addr #5

; Function Attrs: nofree nounwind
declare noundef i32 @puts(i8* nocapture noundef readonly) local_unnamed_addr #6


!llvm.module.flags = !{!0, !1, !2, !3}
!llvm.ident = !{!4}

!0 = !{i32 1, !"wchar_size", i32 4}
!1 = !{i32 7, !"PIC Level", i32 2}
!2 = !{i32 7, !"PIE Level", i32 2}
!3 = !{i32 7, !"uwtable", i32 1}
!4 = !{!"clang version 13.0.0"}
!5 = !{!6, !6, i64 0}
!6 = !{!"omnipotent char", !7, i64 0}
!7 = !{!"Simple C/C++ TBAA"}
!8 = distinct !{!8, !9}
!9 = !{!"llvm.loop.mustprogress"}
!10 = distinct !{!10, !9}
!11 = distinct !{!11, !9}
